target datalayout = "e-m:e-p270:32:32-p271:32:32-p272:64:64-i64:64-i128:128-f80:128-n8:16:32:64-S128"
target triple = "x86_64-pc-linux-gnu"

@.str.14 = private unnamed_addr constant [12 x i8] c"lua_debug> \00", align 1
@stderr = external global ptr, align 8
@stdin = external global ptr, align 8
@.str.15 = private unnamed_addr constant [6 x i8] c"cont\0A\00", align 1
@.str.16 = private unnamed_addr constant [17 x i8] c"=(debug command)\00", align 1
@.str.17 = private unnamed_addr constant [2 x i8] c"\0A\00", align 1

; Function Attrs: nounwind uwtable
define internal i32 @db_debug(ptr noundef %0) #0 {
  %2 = alloca i32, align 4
  %3 = alloca ptr, align 8
  %4 = alloca [250 x i8], align 16
  %5 = alloca i32, align 4
  store ptr %0, ptr %3, align 8, !tbaa !4
  br label %6

6:                                                ; preds = %40, %1
  call void @llvm.lifetime.start.p0(i64 250, ptr %4) #4
  %7 = load ptr, ptr @stderr, align 8, !tbaa !9
  %8 = call i32 @fputs(ptr noundef @.str.14, ptr noundef %7)
  %9 = getelementptr inbounds [250 x i8], ptr %4, i64 0, i64 0
  %10 = load ptr, ptr @stdin, align 8, !tbaa !9
  %11 = call ptr @fgets(ptr noundef %9, i32 noundef 250, ptr noundef %10)
  %12 = icmp eq ptr %11, null
  br i1 %12, label %17, label %13

13:                                               ; preds = %6
  %14 = getelementptr inbounds [250 x i8], ptr %4, i64 0, i64 0
  %15 = call i32 @strcmp(ptr noundef %14, ptr noundef @.str.15) #5
  %16 = icmp eq i32 %15, 0
  br i1 %16, label %17, label %18

17:                                               ; preds = %13, %6
  store i32 0, ptr %2, align 4
  store i32 1, ptr %5, align 4
  br label %38

18:                                               ; preds = %13
  %19 = load ptr, ptr %3, align 8, !tbaa !4
  %20 = getelementptr inbounds [250 x i8], ptr %4, i64 0, i64 0
  %21 = getelementptr inbounds [250 x i8], ptr %4, i64 0, i64 0
  %22 = call i64 @strlen(ptr noundef %21) #5
  %23 = call i32 @luaL_loadbuffer(ptr noundef %19, ptr noundef %20, i64 noundef %22, ptr noundef @.str.16)
  %24 = icmp ne i32 %23, 0
  br i1 %24, label %29, label %25

25:                                               ; preds = %18
  %26 = load ptr, ptr %3, align 8, !tbaa !4
  %27 = call i32 @lua_pcall(ptr noundef %26, i32 noundef 0, i32 noundef 0, i32 noundef 0)
  %28 = icmp ne i32 %27, 0
  br i1 %28, label %29, label %36

29:                                               ; preds = %25, %18
  %30 = load ptr, ptr %3, align 8, !tbaa !4
  %31 = call ptr @lua_tolstring(ptr noundef %30, i32 noundef -1, ptr noundef null)
  %32 = load ptr, ptr @stderr, align 8, !tbaa !9
  %33 = call i32 @fputs(ptr noundef %31, ptr noundef %32)
  %34 = load ptr, ptr @stderr, align 8, !tbaa !9
  %35 = call i32 @fputs(ptr noundef @.str.17, ptr noundef %34)
  br label %36

36:                                               ; preds = %29, %25
  %37 = load ptr, ptr %3, align 8, !tbaa !4
  call void @lua_settop(ptr noundef %37, i32 noundef 0)
  store i32 0, ptr %5, align 4
  br label %38

38:                                               ; preds = %36, %17
  call void @llvm.lifetime.end.p0(i64 250, ptr %4) #4
  %39 = load i32, ptr %5, align 4
  switch i32 %39, label %43 [
    i32 0, label %40
    i32 1, label %41
  ]

40:                                               ; preds = %38
  br label %6

41:                                               ; preds = %38
  %42 = load i32, ptr %2, align 4
  ret i32 %42

43:                                               ; preds = %38
  unreachable
}