; Function Attrs: cold nounwind uwtable
define internal noundef i32 @db_debug(ptr noundef %0) #2 {
  %2 = alloca [250 x i8], align 16
  call void @llvm.lifetime.start.p0(i64 250, ptr nonnull %2) #8
  %3 = load ptr, ptr @stderr, align 8, !tbaa !4
  %4 = tail call i64 @fwrite(ptr nonnull @.str.14, i64 11, i64 1, ptr %3) #9
  %5 = load ptr, ptr @stdin, align 8, !tbaa !4
  %6 = call ptr @fgets(ptr noundef nonnull %2, i32 noundef 250, ptr noundef %5)
  %7 = icmp eq ptr %6, null
  br i1 %7, label %._crit_edge, label %.lr.ph

.lr.ph:                                           ; preds = %1, %19
  %bcmp = call i32 @bcmp(ptr noundef nonnull dereferenceable(6) %2, ptr noundef nonnull dereferenceable(6) @.str.15, i64 6)
  %8 = icmp eq i32 %bcmp, 0
  br i1 %8, label %._crit_edge, label %9

9:                                                ; preds = %.lr.ph
  %10 = call i64 @strlen(ptr noundef nonnull dereferenceable(1) %2) #10
  %11 = call i32 @luaL_loadbuffer(ptr noundef %0, ptr noundef nonnull %2, i64 noundef %10, ptr noundef nonnull @.str.16) #8
  %.not = icmp eq i32 %11, 0
  br i1 %.not, label %12, label %14

12:                                               ; preds = %9
  %13 = call i32 @lua_pcall(ptr noundef %0, i32 noundef 0, i32 noundef 0, i32 noundef 0) #8
  %.not5 = icmp eq i32 %13, 0
  br i1 %.not5, label %19, label %14

14:                                               ; preds = %12, %9
  %15 = call ptr @lua_tolstring(ptr noundef %0, i32 noundef -1, ptr noundef null) #8
  %16 = load ptr, ptr @stderr, align 8, !tbaa !4
  %17 = call i32 @fputs(ptr noundef %15, ptr noundef %16) #9
  %18 = load ptr, ptr @stderr, align 8, !tbaa !4
  %fputc = call i32 @fputc(i32 10, ptr %18)
  br label %19

19:                                               ; preds = %12, %14
  call void @lua_settop(ptr noundef %0, i32 noundef 0) #8
  call void @llvm.lifetime.end.p0(i64 250, ptr nonnull %2) #8
  call void @llvm.lifetime.start.p0(i64 250, ptr nonnull %2) #8
  %20 = load ptr, ptr @stderr, align 8, !tbaa !4
  %21 = call i64 @fwrite(ptr nonnull @.str.14, i64 11, i64 1, ptr %20) #9
  %22 = load ptr, ptr @stdin, align 8, !tbaa !4
  %23 = call ptr @fgets(ptr noundef nonnull %2, i32 noundef 250, ptr noundef %22)
  %24 = icmp eq ptr %23, null
  br i1 %24, label %._crit_edge, label %.lr.ph

._crit_edge:                                      ; preds = %19, %.lr.ph, %1
  call void @llvm.lifetime.end.p0(i64 250, ptr nonnull %2) #8
  ret i32 0
}